; Function Attrs: nounwind uwtable
define ptr @l___private_Lean_Data_Lsp_LanguageFeatures_0__Lean_Lsp_reprCompletionItemKind____x40_Lean_Data_Lsp_LanguageFeatures___hyg_349____boxed(ptr noundef %0, ptr noundef %1) #0 {
  %3 = ptrtoint ptr %0 to i64
  %4 = lshr i64 %3, 1
  %5 = trunc i64 %4 to i8
  %6 = and i64 %3, 1
  %.not = icmp eq i64 %6, 0
  br i1 %.not, label %7, label %lean_dec.exit5

7:                                                ; preds = %2
  %8 = load i32, ptr %0, align 4, !tbaa !8
  %9 = icmp sgt i32 %8, 1
  br i1 %9, label %10, label %12, !prof !11

10:                                               ; preds = %7
  %11 = add nsw i32 %8, -1
  store i32 %11, ptr %0, align 4, !tbaa !8
  br label %lean_dec.exit5

12:                                               ; preds = %7
  %.not.i = icmp eq i32 %8, 0
  br i1 %.not.i, label %lean_dec.exit5, label %13

13:                                               ; preds = %12
  tail call void @lean_dec_ref_cold(ptr noundef nonnull %0) #9
  br label %lean_dec.exit5

lean_dec.exit5:                                   ; preds = %13, %12, %10, %2
  %14 = tail call ptr @l___private_Lean_Data_Lsp_LanguageFeatures_0__Lean_Lsp_reprCompletionItemKind____x40_Lean_Data_Lsp_LanguageFeatures___hyg_349_(i8 noundef zeroext %5, ptr noundef %1)
  %15 = ptrtoint ptr %1 to i64
  %16 = and i64 %15, 1
  %.not8 = icmp eq i64 %16, 0
  br i1 %.not8, label %17, label %lean_dec.exit

17:                                               ; preds = %lean_dec.exit5
  %18 = load i32, ptr %1, align 4, !tbaa !8
  %19 = icmp sgt i32 %18, 1
  br i1 %19, label %20, label %22, !prof !11

20:                                               ; preds = %17
  %21 = add nsw i32 %18, -1
  store i32 %21, ptr %1, align 4, !tbaa !8
  br label %lean_dec.exit

22:                                               ; preds = %17
  %.not.i6 = icmp eq i32 %18, 0
  br i1 %.not.i6, label %lean_dec.exit, label %23

23:                                               ; preds = %22
  tail call void @lean_dec_ref_cold(ptr noundef nonnull %1) #9
  br label %lean_dec.exit

lean_dec.exit:                                    ; preds = %23, %22, %20, %lean_dec.exit5
  ret ptr %14
}